target datalayout = "e-m:e-p270:32:32-p271:32:32-p272:64:64-i64:64-i128:128-f80:128-n8:16:32:64-S128"
target triple = "x86_64-unknown-linux-gnu"

@zmadvise_dontneed.page_size = internal global i64 0, align 8

; Function Attrs: nounwind uwtable
define dso_local void @zmadvise_dontneed(ptr noundef %ptr) #0 {
entry:
  %ptr.addr = alloca ptr, align 8
  %page_size_mask = alloca i64, align 8
  %real_size = alloca i64, align 8
  %aligned_ptr = alloca ptr, align 8
  store ptr %ptr, ptr %ptr.addr, align 8
  %0 = load i64, ptr @zmadvise_dontneed.page_size, align 8
  %cmp = icmp eq i64 %0, 0
  br i1 %cmp, label %if.then, label %if.end

if.then:                                          ; preds = %entry
  %call = call i64 @sysconf(i32 noundef 30) #12
  store i64 %call, ptr @zmadvise_dontneed.page_size, align 8
  br label %if.end

if.end:                                           ; preds = %if.then, %entry
  %1 = load i64, ptr @zmadvise_dontneed.page_size, align 8
  %sub = sub i64 %1, 1
  store i64 %sub, ptr %page_size_mask, align 8
  %2 = load ptr, ptr %ptr.addr, align 8
  %call1 = call i64 @je_malloc_usable_size(ptr noundef %2) #12
  store i64 %call1, ptr %real_size, align 8
  %3 = load i64, ptr %real_size, align 8
  %4 = load i64, ptr @zmadvise_dontneed.page_size, align 8
  %cmp2 = icmp ult i64 %3, %4
  br i1 %cmp2, label %if.then3, label %if.end4

if.then3:                                         ; preds = %if.end
  br label %if.end11

if.end4:                                          ; preds = %if.end
  %5 = load ptr, ptr %ptr.addr, align 8
  %6 = ptrtoint ptr %5 to i64
  %7 = load i64, ptr %page_size_mask, align 8
  %add = add i64 %6, %7
  %8 = load i64, ptr %page_size_mask, align 8
  %not = xor i64 %8, -1
  %and = and i64 %add, %not
  %9 = inttoptr i64 %and to ptr
  store ptr %9, ptr %aligned_ptr, align 8
  %10 = load ptr, ptr %aligned_ptr, align 8
  %11 = load ptr, ptr %ptr.addr, align 8
  %sub.ptr.lhs.cast = ptrtoint ptr %10 to i64
  %sub.ptr.rhs.cast = ptrtoint ptr %11 to i64
  %sub.ptr.sub = sub i64 %sub.ptr.lhs.cast, %sub.ptr.rhs.cast
  %12 = load i64, ptr %real_size, align 8
  %sub5 = sub i64 %12, %sub.ptr.sub
  store i64 %sub5, ptr %real_size, align 8
  %13 = load i64, ptr %real_size, align 8
  %14 = load i64, ptr @zmadvise_dontneed.page_size, align 8
  %cmp6 = icmp uge i64 %13, %14
  br i1 %cmp6, label %if.then7, label %if.end11

if.then7:                                         ; preds = %if.end4
  %15 = load ptr, ptr %aligned_ptr, align 8
  %16 = load i64, ptr %real_size, align 8
  %17 = load i64, ptr %page_size_mask, align 8
  %not8 = xor i64 %17, -1
  %and9 = and i64 %16, %not8
  %call10 = call i32 @madvise(ptr noundef %15, i64 noundef %and9, i32 noundef 4) #12
  br label %if.end11

if.end11:                                         ; preds = %if.then7, %if.end4, %if.then3
  ret void
}