; Function Attrs: nounwind uwtable
define dso_local void @zmadvise_dontneed(ptr noundef %ptr) local_unnamed_addr #3 {
entry:
  %0 = load i64, ptr @zmadvise_dontneed.page_size, align 8
  %cmp = icmp eq i64 %0, 0
  br i1 %cmp, label %if.then, label %if.end

if.then:                                          ; preds = %entry
  %call = tail call i64 @sysconf(i32 noundef 30) #24
  store i64 %call, ptr @zmadvise_dontneed.page_size, align 8
  br label %if.end

if.end:                                           ; preds = %if.then, %entry
  %1 = phi i64 [ %call, %if.then ], [ %0, %entry ]
  %call1 = tail call i64 @je_malloc_usable_size(ptr noundef %ptr) #24
  %2 = load i64, ptr @zmadvise_dontneed.page_size, align 8
  %cmp2 = icmp ult i64 %call1, %2
  br i1 %cmp2, label %if.end11, label %if.end4

if.end4:                                          ; preds = %if.end
  %3 = ptrtoint ptr %ptr to i64
  %sub = add i64 %3, -1
  %add = add i64 %sub, %1
  %not = sub i64 0, %1
  %and = and i64 %add, %not
  %sub.ptr.sub.neg = sub i64 %3, %and
  %sub5 = add i64 %sub.ptr.sub.neg, %call1
  %cmp6.not = icmp ult i64 %sub5, %2
  br i1 %cmp6.not, label %if.end11, label %if.then7

if.then7:                                         ; preds = %if.end4
  %4 = inttoptr i64 %and to ptr
  %and9 = and i64 %sub5, %not
  %call10 = tail call i32 @madvise(ptr noundef %4, i64 noundef %and9, i32 noundef 4) #24
  br label %if.end11

if.end11:                                         ; preds = %if.end, %if.then7, %if.end4
  ret void
}